(iPayloadWrapperList
PayloadWrapperList
p0
(dp1
S'payloadWrappers'
p2
(lp3
(iStoragePayloadWrapper
StoragePayloadWrapper
p4
(dp5
S'featureOrientationKey'
p6
S'0,1,2,2,3,1,4'
p7
sS'payloads'
p8
(lp9
(iPayload
Payload
p10
(dp11
S'cutoff'
p12
cnumpy.core.multiarray
scalar
p13
(cnumpy
dtype
p14
(S'f8'
p15
I0
I1
tp16
Rp17
(I3
S'<'
p18
NNNI-1
I-1
I0
tp19
bS'\xcd\xcc\xcc\xcc\xcc\xcc\x18@'
p20
tp21
Rp22
sba(iPayload
Payload
p23
(dp24
g12
g13
(g17
S'\x00\x00\x00\x00\x00\x00\x04@'
p25
tp26
Rp27
sS'absoluteWeight'
p28
F0.45
sS'classification'
p29
I2
sba(iPayload
Payload
p30
(dp31
g12
g13
(g17
S'ffffff\x14@'
p32
tp33
Rp34
sg28
F0.55
sg29
I1
sba(iPayload
Payload
p35
(dp36
g12
g13
(g17
S'\x00\x00\x00\x00\x00\x00\x14@'
p37
tp38
Rp39
sg28
F0.08
sg29
I2
sba(iPayload
Payload
p40
(dp41
g12
g13
(g17
S'333333\xfb?'
p42
tp43
Rp44
sg28
F0.37
sg29
I1
sba(iPayload
Payload
p45
(dp46
g12
g13
(g17
S'333333\x07@'
p47
tp48
Rp49
sg28
F0.19
sg29
I2
sba(iPayload
Payload
p50
(dp51
g12
I0
sg28
F0.36
sg29
I1
sba(iPayload
Payload
p52
(dp53
g28
F0.07
sg29
I1
sba(iPayload
Payload
p54
(dp55
g28
F0.01
sg29
I2
sba(iPayload
Payload
p56
(dp57
g28
F0.27
sg29
I1
sba(iPayload
Payload
p58
(dp59
g28
F0.1
sg29
I2
sba(iPayload
Payload
p60
(dp61
g28
F0.08
sg29
I2
sba(iPayload
Payload
p62
(dp63
g28
F0.11
sg29
I1
sba(iPayload
Payload
p64
(dp65
g28
F0.0
sg29
I2
sba(iPayload
Payload
p66
(dp67
g28
F0.36
sg29
I1
sbasba(iStoragePayloadWrapper
StoragePayloadWrapper
p68
(dp69
g6
S'0,1,3,2,3,1,4'
p70
sg8
(lp71
(iPayload
Payload
p72
(dp73
g12
g13
(g17
S'\xcd\xcc\xcc\xcc\xcc\xcc\x18@'
p74
tp75
Rp76
sba(iPayload
Payload
p77
(dp78
g12
g13
(g17
S'\x00\x00\x00\x00\x00\x00\x04@'
p79
tp80
Rp81
sg28
F0.45
sg29
I2
sba(iPayload
Payload
p82
(dp83
g12
g13
(g17
S'\xcd\xcc\xcc\xcc\xcc\xcc\xfc?'
p84
tp85
Rp86
sg28
F0.55
sg29
I1
sba(iPayload
Payload
p87
(dp88
g12
g13
(g17
S'\x00\x00\x00\x00\x00\x00\x14@'
p89
tp90
Rp91
sg28
F0.08
sg29
I2
sba(iPayload
Payload
p92
(dp93
g12
g13
(g17
S'333333\xfb?'
p94
tp95
Rp96
sg28
F0.37
sg29
I1
sba(iPayload
Payload
p97
(dp98
g12
g13
(g17
S'\xcd\xcc\xcc\xcc\xcc\xcc\x08@'
p99
tp100
Rp101
sg28
F0.18
sg29
I2
sba(iPayload
Payload
p102
(dp103
g12
I0
sg28
F0.37
sg29
I1
sba(iPayload
Payload
p104
(dp105
g28
F0.07
sg29
I1
sba(iPayload
Payload
p106
(dp107
g28
F0.01
sg29
I2
sba(iPayload
Payload
p108
(dp109
g28
F0.27
sg29
I1
sba(iPayload
Payload
p110
(dp111
g28
F0.1
sg29
I2
sba(iPayload
Payload
p112
(dp113
g28
F0.12
sg29
I1
sba(iPayload
Payload
p114
(dp115
g28
F0.06
sg29
I2
sba(iPayload
Payload
p116
(dp117
g28
F0.0
sg29
I2
sba(iPayload
Payload
p118
(dp119
g28
F0.37
sg29
I1
sbasba(iStoragePayloadWrapper
StoragePayloadWrapper
p120
(dp121
g6
S'0,1,2,None,3,1,4'
p122
sg8
(lp123
(iPayload
Payload
p124
(dp125
g12
g13
(g17
S'\xcd\xcc\xcc\xcc\xcc\xcc\x18@'
p126
tp127
Rp128
sba(iPayload
Payload
p129
(dp130
g12
g13
(g17
S'\x00\x00\x00\x00\x00\x00\x04@'
p131
tp132
Rp133
sg28
F0.45
sg29
I2
sba(iPayload
Payload
p134
(dp135
g12
g13
(g17
S'ffffff\x14@'
p136
tp137
Rp138
sg28
F0.55
sg29
I1
sba(iPayload
Payload
p139
(dp140
g28
F0.08
sg29
I2
sba(iPayload
Payload
p141
(dp142
g12
g13
(g17
S'333333\xfb?'
p143
tp144
Rp145
sg28
F0.37
sg29
I1
sba(iPayload
Payload
p146
(dp147
g12
g13
(g17
S'333333\x07@'
p148
tp149
Rp150
sg28
F0.19
sg29
I2
sba(iPayload
Payload
p151
(dp152
g12
I0
sg28
F0.36
sg29
I1
sba(iPayload
Payload
p153
(dp154
ba(iPayload
Payload
p155
(dp156
ba(iPayload
Payload
p157
(dp158
g28
F0.27
sg29
I1
sba(iPayload
Payload
p159
(dp160
g28
F0.1
sg29
I2
sba(iPayload
Payload
p161
(dp162
g28
F0.08
sg29
I2
sba(iPayload
Payload
p163
(dp164
g28
F0.11
sg29
I1
sba(iPayload
Payload
p165
(dp166
g28
F0.0
sg29
I2
sba(iPayload
Payload
p167
(dp168
g28
F0.36
sg29
I1
sbasba(iStoragePayloadWrapper
StoragePayloadWrapper
p169
(dp170
g6
S'0,1,2,1,3,1,4'
p171
sg8
(lp172
(iPayload
Payload
p173
(dp174
g12
g13
(g17
S'\xcd\xcc\xcc\xcc\xcc\xcc\x18@'
p175
tp176
Rp177
sba(iPayload
Payload
p178
(dp179
g12
g13
(g17
S'\x00\x00\x00\x00\x00\x00\x04@'
p180
tp181
Rp182
sg28
F0.45
sg29
I2
sba(iPayload
Payload
p183
(dp184
g12
g13
(g17
S'ffffff\x14@'
p185
tp186
Rp187
sg28
F0.55
sg29
I1
sba(iPayload
Payload
p188
(dp189
g12
g13
(g17
S'ffffff\x02@'
p190
tp191
Rp192
sg28
F0.08
sg29
I2
sba(iPayload
Payload
p193
(dp194
g12
g13
(g17
S'333333\xfb?'
p195
tp196
Rp197
sg28
F0.37
sg29
I1
sba(iPayload
Payload
p198
(dp199
g12
g13
(g17
S'333333\x07@'
p200
tp201
Rp202
sg28
F0.19
sg29
I2
sba(iPayload
Payload
p203
(dp204
g12
I0
sg28
F0.36
sg29
I1
sba(iPayload
Payload
p205
(dp206
g28
F0.03
sg29
I2
sba(iPayload
Payload
p207
(dp208
g28
F0.05
sg29
I1
sba(iPayload
Payload
p209
(dp210
g28
F0.27
sg29
I1
sba(iPayload
Payload
p211
(dp212
g28
F0.1
sg29
I2
sba(iPayload
Payload
p213
(dp214
g28
F0.08
sg29
I2
sba(iPayload
Payload
p215
(dp216
g28
F0.11
sg29
I1
sba(iPayload
Payload
p217
(dp218
g28
F0.0
sg29
I2
sba(iPayload
Payload
p219
(dp220
g28
F0.36
sg29
I1
sbasbasb.